target datalayout = "e-m:e-p270:32:32-p271:32:32-p272:64:64-i64:64-i128:128-f80:128-n8:16:32:64-S128"
target triple = "x86_64-pc-linux-gnu"

%struct.AVCodecContext = type { ptr, i32, i32, ptr, i32, i32, ptr, ptr, ptr, i64, i32, i32, ptr, i32, %struct.AVRational, %struct.AVRational, %struct.AVRational, i32, i32, i32, i32, i32, %struct.AVRational, i32, i32, i32, i32, i32, i32, i32, i32, i32, i32, i32, ptr, ptr, i32, float, float, float, float, float, float, float, float, float, i32, i32, i32, i32, i32, i32, i32, i32, i32, i32, i32, i32, ptr, ptr, ptr, i32, i32, i32, i32, i32, i32, i32, i32, i32, i32, %struct.AVChannelLayout, i32, i32, i32, i32, i32, i32, i32, i32, ptr, i32, i32, i32, float, float, i32, i32, i32, i32, i32, ptr, i64, i64, float, float, i32, i32, ptr, ptr, i32, i32, i32, i32, i32, ptr, ptr, ptr, ptr, i32, i32, [8 x i64], i32, i32, i32, i32, i32, i32, i32, ptr, ptr, i32, i32, i32, i32, i32, i32, i32, i32, i32, i32, ptr, ptr, i32, i32, ptr, ptr, ptr, ptr, i32, i32, i64, i32, i32, i64, ptr, i64, ptr, i32, ptr, i32 }
%struct.AVRational = type { i32, i32 }
%struct.AVChannelLayout = type { i32, i32, %union.anon, ptr }
%union.anon = type { i64 }
%struct.AVCodecInternal = type { i32, i32, i32, ptr, ptr, ptr, ptr, ptr, ptr, ptr, i32, ptr, ptr, ptr, i32, i32, ptr, i32, ptr, ptr, i32, i32 }
%struct.VAAPIDecodeContext = type { i32, i32, ptr, ptr, ptr, ptr, i32, i32, %struct._VASurfaceAttrib }
%struct._VASurfaceAttrib = type { i32, i32, %struct._VAGenericValue }
%struct._VAGenericValue = type { i32, %union.anon.0 }
%union.anon.0 = type { ptr }
%struct.AVVAAPIDeviceContext = type { ptr, i32 }
%struct.AVBufferRef = type { ptr, ptr, i64 }
%struct.AVHWFramesContext = type { ptr, ptr, ptr, ptr, ptr, ptr, ptr, i32, i32, i32, i32, i32 }
%struct.AVHWDeviceContext = type { ptr, i32, ptr, ptr, ptr }
%struct.AVVAAPIFramesContext = type { ptr, i32, ptr, i32 }

@.str.18 = private unnamed_addr constant [43 x i8] c"Failed to create decode context: %d (%s).\0A\00", align 1
@.str.19 = private unnamed_addr constant [38 x i8] c"Decode context initialised: %#x/%#x.\0A\00", align 1

; Function Attrs: nounwind uwtable
define i32 @ff_vaapi_decode_init(ptr noundef %0) #0 {
  %2 = alloca i32, align 4
  %3 = alloca ptr, align 8
  %4 = alloca ptr, align 8
  %5 = alloca i32, align 4
  %6 = alloca i32, align 4
  %7 = alloca i32, align 4
  store ptr %0, ptr %3, align 8, !tbaa !4
  call void @llvm.lifetime.start.p0(i64 8, ptr %4) #6
  %8 = load ptr, ptr %3, align 8, !tbaa !4
  %9 = getelementptr inbounds nuw %struct.AVCodecContext, ptr %8, i32 0, i32 7
  %10 = load ptr, ptr %9, align 8, !tbaa !16
  %11 = getelementptr inbounds nuw %struct.AVCodecInternal, ptr %10, i32 0, i32 16
  %12 = load ptr, ptr %11, align 8, !tbaa !34
  store ptr %12, ptr %4, align 8, !tbaa !41
  call void @llvm.lifetime.start.p0(i64 4, ptr %5) #6
  call void @llvm.lifetime.start.p0(i64 4, ptr %6) #6
  %13 = load ptr, ptr %4, align 8, !tbaa !41
  %14 = getelementptr inbounds nuw %struct.VAAPIDecodeContext, ptr %13, i32 0, i32 0
  store i32 -1, ptr %14, align 8, !tbaa !113
  %15 = load ptr, ptr %4, align 8, !tbaa !41
  %16 = getelementptr inbounds nuw %struct.VAAPIDecodeContext, ptr %15, i32 0, i32 1
  store i32 -1, ptr %16, align 4, !tbaa !58
  %17 = load ptr, ptr %3, align 8, !tbaa !4
  %18 = call i32 @ff_decode_get_hw_frames_ctx(ptr noundef %17, i32 noundef 3)
  store i32 %18, ptr %6, align 4, !tbaa !11
  %19 = load i32, ptr %6, align 4, !tbaa !11
  %20 = icmp slt i32 %19, 0
  br i1 %20, label %21, label %22

21:                                               ; preds = %1
  br label %106

22:                                               ; preds = %1
  %23 = load ptr, ptr %3, align 8, !tbaa !4
  %24 = getelementptr inbounds nuw %struct.AVCodecContext, ptr %23, i32 0, i32 107
  %25 = load ptr, ptr %24, align 8, !tbaa !114
  %26 = getelementptr inbounds nuw %struct.AVBufferRef, ptr %25, i32 0, i32 1
  %27 = load ptr, ptr %26, align 8, !tbaa !67
  %28 = load ptr, ptr %4, align 8, !tbaa !41
  %29 = getelementptr inbounds nuw %struct.VAAPIDecodeContext, ptr %28, i32 0, i32 4
  store ptr %27, ptr %29, align 8, !tbaa !115
  %30 = load ptr, ptr %4, align 8, !tbaa !41
  %31 = getelementptr inbounds nuw %struct.VAAPIDecodeContext, ptr %30, i32 0, i32 4
  %32 = load ptr, ptr %31, align 8, !tbaa !115
  %33 = getelementptr inbounds nuw %struct.AVHWFramesContext, ptr %32, i32 0, i32 3
  %34 = load ptr, ptr %33, align 8, !tbaa !116
  %35 = load ptr, ptr %4, align 8, !tbaa !41
  %36 = getelementptr inbounds nuw %struct.VAAPIDecodeContext, ptr %35, i32 0, i32 5
  store ptr %34, ptr %36, align 8, !tbaa !117
  %37 = load ptr, ptr %4, align 8, !tbaa !41
  %38 = getelementptr inbounds nuw %struct.VAAPIDecodeContext, ptr %37, i32 0, i32 4
  %39 = load ptr, ptr %38, align 8, !tbaa !115
  %40 = getelementptr inbounds nuw %struct.AVHWFramesContext, ptr %39, i32 0, i32 2
  %41 = load ptr, ptr %40, align 8, !tbaa !71
  %42 = load ptr, ptr %4, align 8, !tbaa !41
  %43 = getelementptr inbounds nuw %struct.VAAPIDecodeContext, ptr %42, i32 0, i32 2
  store ptr %41, ptr %43, align 8, !tbaa !118
  %44 = load ptr, ptr %4, align 8, !tbaa !41
  %45 = getelementptr inbounds nuw %struct.VAAPIDecodeContext, ptr %44, i32 0, i32 2
  %46 = load ptr, ptr %45, align 8, !tbaa !118
  %47 = getelementptr inbounds nuw %struct.AVHWDeviceContext, ptr %46, i32 0, i32 2
  %48 = load ptr, ptr %47, align 8, !tbaa !77
  %49 = load ptr, ptr %4, align 8, !tbaa !41
  %50 = getelementptr inbounds nuw %struct.VAAPIDecodeContext, ptr %49, i32 0, i32 3
  store ptr %48, ptr %50, align 8, !tbaa !48
  %51 = load ptr, ptr %3, align 8, !tbaa !4
  %52 = load ptr, ptr %4, align 8, !tbaa !41
  %53 = getelementptr inbounds nuw %struct.VAAPIDecodeContext, ptr %52, i32 0, i32 4
  %54 = load ptr, ptr %53, align 8, !tbaa !115
  %55 = getelementptr inbounds nuw %struct.AVHWFramesContext, ptr %54, i32 0, i32 1
  %56 = load ptr, ptr %55, align 8, !tbaa !79
  %57 = load ptr, ptr %4, align 8, !tbaa !41
  %58 = getelementptr inbounds nuw %struct.VAAPIDecodeContext, ptr %57, i32 0, i32 0
  %59 = call i32 @vaapi_decode_make_config(ptr noundef %51, ptr noundef %56, ptr noundef %58, ptr noundef null)
  store i32 %59, ptr %6, align 4, !tbaa !11
  %60 = load i32, ptr %6, align 4, !tbaa !11
  %61 = icmp ne i32 %60, 0
  br i1 %61, label %62, label %63

62:                                               ; preds = %22
  br label %106

63:                                               ; preds = %22
  %64 = load ptr, ptr %4, align 8, !tbaa !41
  %65 = getelementptr inbounds nuw %struct.VAAPIDecodeContext, ptr %64, i32 0, i32 3
  %66 = load ptr, ptr %65, align 8, !tbaa !48
  %67 = getelementptr inbounds nuw %struct.AVVAAPIDeviceContext, ptr %66, i32 0, i32 0
  %68 = load ptr, ptr %67, align 8, !tbaa !56
  %69 = load ptr, ptr %4, align 8, !tbaa !41
  %70 = getelementptr inbounds nuw %struct.VAAPIDecodeContext, ptr %69, i32 0, i32 0
  %71 = load i32, ptr %70, align 8, !tbaa !113
  %72 = load ptr, ptr %3, align 8, !tbaa !4
  %73 = getelementptr inbounds nuw %struct.AVCodecContext, ptr %72, i32 0, i32 20
  %74 = load i32, ptr %73, align 8, !tbaa !101
  %75 = load ptr, ptr %3, align 8, !tbaa !4
  %76 = getelementptr inbounds nuw %struct.AVCodecContext, ptr %75, i32 0, i32 21
  %77 = load i32, ptr %76, align 4, !tbaa !104
  %78 = load ptr, ptr %4, align 8, !tbaa !41
  %79 = getelementptr inbounds nuw %struct.VAAPIDecodeContext, ptr %78, i32 0, i32 5
  %80 = load ptr, ptr %79, align 8, !tbaa !117
  %81 = getelementptr inbounds nuw %struct.AVVAAPIFramesContext, ptr %80, i32 0, i32 2
  %82 = load ptr, ptr %81, align 8, !tbaa !119
  %83 = load ptr, ptr %4, align 8, !tbaa !41
  %84 = getelementptr inbounds nuw %struct.VAAPIDecodeContext, ptr %83, i32 0, i32 5
  %85 = load ptr, ptr %84, align 8, !tbaa !117
  %86 = getelementptr inbounds nuw %struct.AVVAAPIFramesContext, ptr %85, i32 0, i32 3
  %87 = load i32, ptr %86, align 8, !tbaa !122
  %88 = load ptr, ptr %4, align 8, !tbaa !41
  %89 = getelementptr inbounds nuw %struct.VAAPIDecodeContext, ptr %88, i32 0, i32 1
  %90 = call i32 @vaCreateContext(ptr noundef %68, i32 noundef %71, i32 noundef %74, i32 noundef %77, i32 noundef 1, ptr noundef %82, i32 noundef %87, ptr noundef %89)
  store i32 %90, ptr %5, align 4, !tbaa !11
  %91 = load i32, ptr %5, align 4, !tbaa !11
  %92 = icmp ne i32 %91, 0
  br i1 %92, label %93, label %98

93:                                               ; preds = %63
  %94 = load ptr, ptr %3, align 8, !tbaa !4
  %95 = load i32, ptr %5, align 4, !tbaa !11
  %96 = load i32, ptr %5, align 4, !tbaa !11
  %97 = call ptr @vaErrorStr(i32 noundef %96)
  call void (ptr, i32, ptr, ...) @av_log(ptr noundef %94, i32 noundef 16, ptr noundef @.str.18, i32 noundef %95, ptr noundef %97)
  store i32 -5, ptr %6, align 4, !tbaa !11
  br label %106

98:                                               ; preds = %63
  %99 = load ptr, ptr %3, align 8, !tbaa !4
  %100 = load ptr, ptr %4, align 8, !tbaa !41
  %101 = getelementptr inbounds nuw %struct.VAAPIDecodeContext, ptr %100, i32 0, i32 0
  %102 = load i32, ptr %101, align 8, !tbaa !113
  %103 = load ptr, ptr %4, align 8, !tbaa !41
  %104 = getelementptr inbounds nuw %struct.VAAPIDecodeContext, ptr %103, i32 0, i32 1
  %105 = load i32, ptr %104, align 4, !tbaa !58
  call void (ptr, i32, ptr, ...) @av_log(ptr noundef %99, i32 noundef 48, ptr noundef @.str.19, i32 noundef %102, i32 noundef %105)
  store i32 0, ptr %2, align 4
  store i32 1, ptr %7, align 4
  br label %110

106:                                              ; preds = %93, %62, %21
  %107 = load ptr, ptr %3, align 8, !tbaa !4
  %108 = call i32 @ff_vaapi_decode_uninit(ptr noundef %107)
  %109 = load i32, ptr %6, align 4, !tbaa !11
  store i32 %109, ptr %2, align 4
  store i32 1, ptr %7, align 4
  br label %110

110:                                              ; preds = %106, %98
  call void @llvm.lifetime.end.p0(i64 4, ptr %6) #6
  call void @llvm.lifetime.end.p0(i64 4, ptr %5) #6
  call void @llvm.lifetime.end.p0(i64 8, ptr %4) #6
  %111 = load i32, ptr %2, align 4
  ret i32 %111
}