; Function Attrs: nounwind uwtable
define range(i32 -2147483648, 1) i32 @ff_vaapi_decode_init(ptr noundef %0) local_unnamed_addr #0 {
  %2 = getelementptr inbounds nuw i8, ptr %0, i64 40
  %3 = load ptr, ptr %2, align 8, !tbaa !4
  %4 = getelementptr inbounds nuw i8, ptr %3, i64 112
  %5 = load ptr, ptr %4, align 8, !tbaa !27
  store i32 -1, ptr %5, align 8, !tbaa !100
  %6 = getelementptr inbounds nuw i8, ptr %5, i64 4
  store i32 -1, ptr %6, align 4, !tbaa !48
  %7 = tail call i32 @ff_decode_get_hw_frames_ctx(ptr noundef %0, i32 noundef 3) #4
  %8 = icmp slt i32 %7, 0
  br i1 %8, label %46, label %9

9:                                                ; preds = %1
  %10 = getelementptr inbounds nuw i8, ptr %0, i64 552
  %11 = load ptr, ptr %10, align 8, !tbaa !101
  %12 = getelementptr inbounds nuw i8, ptr %11, i64 8
  %13 = load ptr, ptr %12, align 8, !tbaa !57
  %14 = getelementptr inbounds nuw i8, ptr %5, i64 24
  store ptr %13, ptr %14, align 8, !tbaa !102
  %15 = getelementptr inbounds nuw i8, ptr %13, i64 24
  %16 = load ptr, ptr %15, align 8, !tbaa !103
  %17 = getelementptr inbounds nuw i8, ptr %5, i64 32
  store ptr %16, ptr %17, align 8, !tbaa !104
  %18 = getelementptr inbounds nuw i8, ptr %13, i64 16
  %19 = load ptr, ptr %18, align 8, !tbaa !60
  %20 = getelementptr inbounds nuw i8, ptr %5, i64 8
  store ptr %19, ptr %20, align 8, !tbaa !105
  %21 = getelementptr inbounds nuw i8, ptr %19, i64 16
  %22 = load ptr, ptr %21, align 8, !tbaa !65
  %23 = getelementptr inbounds nuw i8, ptr %5, i64 16
  store ptr %22, ptr %23, align 8, !tbaa !38
  %24 = getelementptr inbounds nuw i8, ptr %13, i64 8
  %25 = load ptr, ptr %24, align 8, !tbaa !66
  %26 = tail call fastcc i32 @vaapi_decode_make_config(ptr noundef nonnull %0, ptr noundef %25, ptr noundef nonnull %5, ptr noundef null)
  %.not = icmp eq i32 %26, 0
  br i1 %.not, label %27, label %46

27:                                               ; preds = %9
  %28 = load ptr, ptr %23, align 8, !tbaa !38
  %29 = load ptr, ptr %28, align 8, !tbaa !46
  %30 = load i32, ptr %5, align 8, !tbaa !100
  %31 = getelementptr inbounds nuw i8, ptr %0, i64 120
  %32 = load i32, ptr %31, align 8, !tbaa !88
  %33 = getelementptr inbounds nuw i8, ptr %0, i64 124
  %34 = load i32, ptr %33, align 4, !tbaa !91
  %35 = load ptr, ptr %17, align 8, !tbaa !104
  %36 = getelementptr inbounds nuw i8, ptr %35, i64 16
  %37 = load ptr, ptr %36, align 8, !tbaa !106
  %38 = getelementptr inbounds nuw i8, ptr %35, i64 24
  %39 = load i32, ptr %38, align 8, !tbaa !109
  %40 = tail call i32 @vaCreateContext(ptr noundef %29, i32 noundef %30, i32 noundef %32, i32 noundef %34, i32 noundef 1, ptr noundef %37, i32 noundef %39, ptr noundef nonnull %6) #4
  %.not37 = icmp eq i32 %40, 0
  br i1 %.not37, label %43, label %41

41:                                               ; preds = %27
  %42 = tail call ptr @vaErrorStr(i32 noundef %40) #4
  tail call void (ptr, i32, ptr, ...) @av_log(ptr noundef nonnull %0, i32 noundef 16, ptr noundef nonnull @.str.18, i32 noundef %40, ptr noundef %42) #4
  br label %46

43:                                               ; preds = %27
  %44 = load i32, ptr %5, align 8, !tbaa !100
  %45 = load i32, ptr %6, align 4, !tbaa !48
  tail call void (ptr, i32, ptr, ...) @av_log(ptr noundef nonnull %0, i32 noundef 48, ptr noundef nonnull @.str.19, i32 noundef %44, i32 noundef %45) #4
  br label %48

46:                                               ; preds = %9, %1, %41
  %.0 = phi i32 [ %7, %1 ], [ %26, %9 ], [ -5, %41 ]
  %47 = tail call i32 @ff_vaapi_decode_uninit(ptr noundef nonnull %0)
  br label %48

48:                                               ; preds = %46, %43
  %.033 = phi i32 [ %.0, %46 ], [ 0, %43 ]
  ret i32 %.033
}